; Function Attrs: nounwind uwtable
define dso_local ptr @lookup_commit_object(ptr noundef %0, ptr noundef %1) local_unnamed_addr #0 {
  %3 = tail call ptr @parse_object(ptr noundef %0, ptr noundef %1) #24
  %.not = icmp eq ptr %3, null
  br i1 %.not, label %6, label %4

4:                                                ; preds = %2
  %5 = tail call ptr @object_as_type(ptr noundef nonnull %3, i32 noundef 1, i32 noundef 0) #24
  br label %6

6:                                                ; preds = %2, %4
  %7 = phi ptr [ %5, %4 ], [ null, %2 ]
  ret ptr %7
}